target datalayout = "e-m:e-p270:32:32-p271:32:32-p272:64:64-i64:64-i128:128-f80:128-n8:16:32:64-S128"
target triple = "x86_64-pc-linux-gnu"

%struct.rlc_channel = type { i32, i16, i16, i8, i16, i8, i8, i32, i32 }
%struct.rlc_seqlist = type { %struct.rlc_channel, ptr, i32 }
%struct._packet_info = type { ptr, ptr, i32, i32, %struct.nstime_t, %struct.nstime_t, %struct.nstime_t, i8, ptr, ptr, ptr, ptr, %struct._address, %struct._address, %struct._address, %struct._address, %struct._address, %struct._address, i32, ptr, i8, [3 x i8], %struct.anon, i32, i32, i32, i32, ptr, i8, ptr, ptr, i16, i16, i32, i32, i16, i32, i32, ptr, ptr, ptr, i8, i8, i16, i16, i16, i32, i16, i16, ptr, ptr, ptr, ptr, ptr, i32, i32 }
%struct.nstime_t = type { i64, i32 }
%struct._address = type { i32, i32, ptr, ptr }
%struct.anon = type { i8, [3 x i8] }
%struct.rlc_seq = type { i32, %struct.nstime_t, i16, i16 }
%struct._GList = type { ptr, ptr, ptr }

@sequence_table = internal global ptr null, align 8

; Function Attrs: nounwind null_pointer_is_valid sspstrong uwtable
define internal zeroext i16 @getChannelSNModulus(ptr noundef %0) #10 {
  %2 = alloca i16, align 2
  %3 = alloca ptr, align 8
  store ptr %0, ptr %3, align 8
  %4 = load ptr, ptr %3, align 8
  %5 = getelementptr inbounds nuw %struct.rlc_channel, ptr %4, i32 0, i32 8
  %6 = load i32, ptr %5, align 4
  %7 = icmp eq i32 1, %6
  br i1 %7, label %8, label %9

8:                                                ; preds = %1
  store i16 128, ptr %2, align 2
  br label %10

9:                                                ; preds = %1
  store i16 4096, ptr %2, align 2
  br label %10

10:                                               ; preds = %9, %8
  %11 = load i16, ptr %2, align 2
  ret i16 %11
}

; Function Attrs: null_pointer_is_valid sspstrong uwtable
define internal zeroext i1 @rlc_is_duplicate(i32 noundef %0, ptr noundef %1, i16 noundef zeroext %2, ptr noundef %3, ptr noundef %4) #0 {
  %6 = alloca i1, align 1
  %7 = alloca i32, align 4
  %8 = alloca ptr, align 8
  %9 = alloca i16, align 2
  %10 = alloca ptr, align 8
  %11 = alloca ptr, align 8
  %12 = alloca ptr, align 8
  %13 = alloca %struct.rlc_seqlist, align 8
  %14 = alloca ptr, align 8
  %15 = alloca %struct.rlc_seq, align 8
  %16 = alloca ptr, align 8
  %17 = alloca i16, align 2
  %18 = alloca %struct.nstime_t, align 8
  %19 = alloca i8, align 1
  %20 = alloca i8, align 1
  %21 = alloca i32, align 4
  store i32 %0, ptr %7, align 4
  store ptr %1, ptr %8, align 8
  store i16 %2, ptr %9, align 2
  store ptr %3, ptr %10, align 8
  store ptr %4, ptr %11, align 8
  call void @llvm.lifetime.start.p0(i64 8, ptr %12) #18
  call void @llvm.lifetime.start.p0(i64 40, ptr %13) #18
  call void @llvm.lifetime.start.p0(i64 8, ptr %14) #18
  call void @llvm.lifetime.start.p0(i64 32, ptr %15) #18
  call void @llvm.lifetime.start.p0(i64 8, ptr %16) #18
  call void @llvm.lifetime.start.p0(i64 2, ptr %17) #18
  call void @llvm.lifetime.start.p0(i64 16, ptr %18) #18
  call void @llvm.lifetime.start.p0(i64 1, ptr %19) #18
  call void @llvm.lifetime.start.p0(i64 1, ptr %20) #18
  %22 = getelementptr inbounds nuw %struct.rlc_seqlist, ptr %13, i32 0, i32 0
  %23 = load i32, ptr %7, align 4
  %24 = load ptr, ptr %8, align 8
  %25 = load ptr, ptr %11, align 8
  %26 = call i32 @rlc_channel_assign(ptr noundef %22, i32 noundef %23, ptr noundef %24, ptr noundef %25)
  %27 = icmp eq i32 %26, -1
  br i1 %27, label %28, label %29

28:                                               ; preds = %5
  store i1 false, ptr %6, align 1
  store i32 1, ptr %21, align 4
  br label %209

29:                                               ; preds = %5
  %30 = load ptr, ptr @sequence_table, align 8
  %31 = getelementptr inbounds nuw %struct.rlc_seqlist, ptr %13, i32 0, i32 0
  %32 = call ptr @g_hash_table_lookup(ptr noundef %30, ptr noundef %31)
  store ptr %32, ptr %14, align 8
  %33 = load ptr, ptr %14, align 8
  %34 = icmp ne ptr %33, null
  br i1 %34, label %49, label %35

35:                                               ; preds = %29
  %36 = call ptr @wmem_file_scope()
  %37 = call noalias ptr @wmem_alloc0(ptr noundef %36, i64 noundef 40) #19
  store ptr %37, ptr %14, align 8
  %38 = load ptr, ptr %14, align 8
  %39 = getelementptr inbounds nuw %struct.rlc_seqlist, ptr %38, i32 0, i32 0
  %40 = load i32, ptr %7, align 4
  %41 = load ptr, ptr %8, align 8
  %42 = load ptr, ptr %11, align 8
  %43 = call i32 @rlc_channel_assign(ptr noundef %39, i32 noundef %40, ptr noundef %41, ptr noundef %42)
  %44 = load ptr, ptr @sequence_table, align 8
  %45 = load ptr, ptr %14, align 8
  %46 = getelementptr inbounds nuw %struct.rlc_seqlist, ptr %45, i32 0, i32 0
  %47 = load ptr, ptr %14, align 8
  %48 = call i32 @g_hash_table_insert(ptr noundef %44, ptr noundef %46, ptr noundef %47)
  br label %49

49:                                               ; preds = %35, %29
  %50 = load i16, ptr %9, align 2
  %51 = getelementptr inbounds nuw %struct.rlc_seq, ptr %15, i32 0, i32 2
  store i16 %50, ptr %51, align 8
  %52 = load ptr, ptr %8, align 8
  %53 = getelementptr inbounds nuw %struct._packet_info, ptr %52, i32 0, i32 3
  %54 = load i32, ptr %53, align 4
  %55 = getelementptr inbounds nuw %struct.rlc_seq, ptr %15, i32 0, i32 0
  store i32 %54, ptr %55, align 8
  %56 = load ptr, ptr %14, align 8
  %57 = getelementptr inbounds nuw %struct.rlc_seqlist, ptr %56, i32 0, i32 1
  %58 = load ptr, ptr %57, align 8
  %59 = call ptr @g_list_first(ptr noundef %58)
  store ptr %59, ptr %12, align 8
  %60 = getelementptr inbounds nuw %struct.rlc_seqlist, ptr %13, i32 0, i32 0
  %61 = call zeroext i16 @getChannelSNModulus(ptr noundef %60)
  store i16 %61, ptr %17, align 2
  %62 = load ptr, ptr %12, align 8
  %63 = icmp ne ptr %62, null
  br i1 %63, label %64, label %138

64:                                               ; preds = %49
  %65 = load ptr, ptr %12, align 8
  %66 = getelementptr inbounds nuw %struct._GList, ptr %65, i32 0, i32 0
  %67 = load ptr, ptr %66, align 8
  store ptr %67, ptr %16, align 8
  %68 = load ptr, ptr %16, align 8
  %69 = getelementptr inbounds nuw %struct.rlc_seq, ptr %68, i32 0, i32 2
  %70 = load i16, ptr %69, align 8
  %71 = zext i16 %70 to i32
  %72 = load i16, ptr %9, align 2
  %73 = zext i16 %72 to i32
  %74 = sub i32 %71, %73
  %75 = load i16, ptr %17, align 2
  %76 = zext i16 %75 to i32
  %77 = add i32 %74, %76
  %78 = load i16, ptr %17, align 2
  %79 = zext i16 %78 to i32
  %80 = srem i32 %77, %79
  %81 = load i16, ptr %9, align 2
  %82 = zext i16 %81 to i32
  %83 = load ptr, ptr %16, align 8
  %84 = getelementptr inbounds nuw %struct.rlc_seq, ptr %83, i32 0, i32 2
  %85 = load i16, ptr %84, align 8
  %86 = zext i16 %85 to i32
  %87 = sub i32 %82, %86
  %88 = load i16, ptr %17, align 2
  %89 = zext i16 %88 to i32
  %90 = add i32 %87, %89
  %91 = load i16, ptr %17, align 2
  %92 = zext i16 %91 to i32
  %93 = srem i32 %90, %92
  %94 = icmp slt i32 %80, %93
  br i1 %94, label %95, label %109

95:                                               ; preds = %64
  %96 = load ptr, ptr %16, align 8
  %97 = getelementptr inbounds nuw %struct.rlc_seq, ptr %96, i32 0, i32 2
  %98 = load i16, ptr %97, align 8
  %99 = zext i16 %98 to i32
  %100 = load i16, ptr %9, align 2
  %101 = zext i16 %100 to i32
  %102 = sub i32 %99, %101
  %103 = load i16, ptr %17, align 2
  %104 = zext i16 %103 to i32
  %105 = add i32 %102, %104
  %106 = load i16, ptr %17, align 2
  %107 = zext i16 %106 to i32
  %108 = srem i32 %105, %107
  br label %123

109:                                              ; preds = %64
  %110 = load i16, ptr %9, align 2
  %111 = zext i16 %110 to i32
  %112 = load ptr, ptr %16, align 8
  %113 = getelementptr inbounds nuw %struct.rlc_seq, ptr %112, i32 0, i32 2
  %114 = load i16, ptr %113, align 8
  %115 = zext i16 %114 to i32
  %116 = sub i32 %111, %115
  %117 = load i16, ptr %17, align 2
  %118 = zext i16 %117 to i32
  %119 = add i32 %116, %118
  %120 = load i16, ptr %17, align 2
  %121 = zext i16 %120 to i32
  %122 = srem i32 %119, %121
  br label %123

123:                                              ; preds = %109, %95
  %124 = phi i32 [ %108, %95 ], [ %122, %109 ]
  %125 = load i16, ptr %17, align 2
  %126 = zext i16 %125 to i32
  %127 = sdiv i32 %126, 4
  %128 = icmp sge i32 %124, %127
  br i1 %128, label %129, label %137

129:                                              ; preds = %123
  %130 = load ptr, ptr %14, align 8
  %131 = getelementptr inbounds nuw %struct.rlc_seqlist, ptr %130, i32 0, i32 1
  %132 = load ptr, ptr %131, align 8
  %133 = load ptr, ptr %12, align 8
  %134 = call ptr @g_list_remove_link(ptr noundef %132, ptr noundef %133)
  %135 = load ptr, ptr %14, align 8
  %136 = getelementptr inbounds nuw %struct.rlc_seqlist, ptr %135, i32 0, i32 1
  store ptr %134, ptr %136, align 8
  br label %137

137:                                              ; preds = %129, %123
  br label %138

138:                                              ; preds = %137, %49
  store i8 0, ptr %19, align 1
  store i8 1, ptr %20, align 1
  %139 = load ptr, ptr %14, align 8
  %140 = getelementptr inbounds nuw %struct.rlc_seqlist, ptr %139, i32 0, i32 1
  %141 = load ptr, ptr %140, align 8
  %142 = call ptr @g_list_find_custom(ptr noundef %141, ptr noundef %15, ptr noundef @rlc_cmp_seq)
  store ptr %142, ptr %12, align 8
  br label %143

143:                                              ; preds = %183, %138
  %144 = load ptr, ptr %12, align 8
  %145 = icmp ne ptr %144, null
  br i1 %145, label %146, label %188

146:                                              ; preds = %143
  %147 = load ptr, ptr %12, align 8
  %148 = getelementptr inbounds nuw %struct._GList, ptr %147, i32 0, i32 0
  %149 = load ptr, ptr %148, align 8
  store ptr %149, ptr %16, align 8
  %150 = load ptr, ptr %16, align 8
  %151 = getelementptr inbounds nuw %struct.rlc_seq, ptr %150, i32 0, i32 0
  %152 = load i32, ptr %151, align 8
  %153 = getelementptr inbounds nuw %struct.rlc_seq, ptr %15, i32 0, i32 0
  %154 = load i32, ptr %153, align 8
  %155 = icmp ult i32 %152, %154
  br i1 %155, label %156, label %174

156:                                              ; preds = %146
  %157 = load ptr, ptr %8, align 8
  %158 = getelementptr inbounds nuw %struct._packet_info, ptr %157, i32 0, i32 4
  %159 = load ptr, ptr %16, align 8
  %160 = getelementptr inbounds nuw %struct.rlc_seq, ptr %159, i32 0, i32 1
  call void @nstime_delta(ptr noundef %18, ptr noundef %158, ptr noundef %160)
  %161 = getelementptr inbounds nuw %struct.nstime_t, ptr %18, i32 0, i32 0
  %162 = load i64, ptr %161, align 8
  %163 = icmp slt i64 %162, 5
  br i1 %163, label %164, label %173

164:                                              ; preds = %156
  %165 = load ptr, ptr %10, align 8
  %166 = icmp ne ptr %165, null
  br i1 %166, label %167, label %172

167:                                              ; preds = %164
  %168 = load ptr, ptr %16, align 8
  %169 = getelementptr inbounds nuw %struct.rlc_seq, ptr %168, i32 0, i32 0
  %170 = load i32, ptr %169, align 8
  %171 = load ptr, ptr %10, align 8
  store i32 %170, ptr %171, align 4
  br label %172

172:                                              ; preds = %167, %164
  store i8 1, ptr %19, align 1
  br label %173

173:                                              ; preds = %172, %156
  br label %183

174:                                              ; preds = %146
  %175 = load ptr, ptr %16, align 8
  %176 = getelementptr inbounds nuw %struct.rlc_seq, ptr %175, i32 0, i32 0
  %177 = load i32, ptr %176, align 8
  %178 = getelementptr inbounds nuw %struct.rlc_seq, ptr %15, i32 0, i32 0
  %179 = load i32, ptr %178, align 8
  %180 = icmp eq i32 %177, %179
  br i1 %180, label %181, label %182

181:                                              ; preds = %174
  store i8 0, ptr %20, align 1
  br label %182

182:                                              ; preds = %181, %174
  br label %183

183:                                              ; preds = %182, %173
  %184 = load ptr, ptr %12, align 8
  %185 = getelementptr inbounds nuw %struct._GList, ptr %184, i32 0, i32 1
  %186 = load ptr, ptr %185, align 8
  %187 = call ptr @g_list_find_custom(ptr noundef %186, ptr noundef %15, ptr noundef @rlc_cmp_seq)
  store ptr %187, ptr %12, align 8
  br label %143, !llvm.loop !14

188:                                              ; preds = %143
  %189 = load i8, ptr %20, align 1, !range !8, !noundef !9
  %190 = trunc i8 %189 to i1
  br i1 %190, label %191, label %206

191:                                              ; preds = %188
  %192 = call ptr @wmem_file_scope()
  %193 = call noalias ptr @wmem_alloc0(ptr noundef %192, i64 noundef 32) #19
  store ptr %193, ptr %16, align 8
  %194 = load ptr, ptr %16, align 8
  call void @llvm.memcpy.p0.p0.i64(ptr align 8 %194, ptr align 8 %15, i64 32, i1 false)
  %195 = load ptr, ptr %16, align 8
  %196 = getelementptr inbounds nuw %struct.rlc_seq, ptr %195, i32 0, i32 1
  %197 = load ptr, ptr %8, align 8
  %198 = getelementptr inbounds nuw %struct._packet_info, ptr %197, i32 0, i32 4
  call void @llvm.memcpy.p0.p0.i64(ptr align 8 %196, ptr align 8 %198, i64 16, i1 false)
  %199 = load ptr, ptr %14, align 8
  %200 = getelementptr inbounds nuw %struct.rlc_seqlist, ptr %199, i32 0, i32 1
  %201 = load ptr, ptr %200, align 8
  %202 = load ptr, ptr %16, align 8
  %203 = call ptr @g_list_append(ptr noundef %201, ptr noundef %202)
  %204 = load ptr, ptr %14, align 8
  %205 = getelementptr inbounds nuw %struct.rlc_seqlist, ptr %204, i32 0, i32 1
  store ptr %203, ptr %205, align 8
  br label %206

206:                                              ; preds = %191, %188
  %207 = load i8, ptr %19, align 1, !range !8, !noundef !9
  %208 = trunc i8 %207 to i1
  store i1 %208, ptr %6, align 1
  store i32 1, ptr %21, align 4
  br label %209

209:                                              ; preds = %206, %28
  call void @llvm.lifetime.end.p0(i64 1, ptr %20) #18
  call void @llvm.lifetime.end.p0(i64 1, ptr %19) #18
  call void @llvm.lifetime.end.p0(i64 16, ptr %18) #18
  call void @llvm.lifetime.end.p0(i64 2, ptr %17) #18
  call void @llvm.lifetime.end.p0(i64 8, ptr %16) #18
  call void @llvm.lifetime.end.p0(i64 32, ptr %15) #18
  call void @llvm.lifetime.end.p0(i64 8, ptr %14) #18
  call void @llvm.lifetime.end.p0(i64 40, ptr %13) #18
  call void @llvm.lifetime.end.p0(i64 8, ptr %12) #18
  %210 = load i1, ptr %6, align 1
  ret i1 %210
}