; Function Attrs: null_pointer_is_valid sspstrong uwtable
define internal fastcc zeroext i1 @rlc_is_duplicate(i32 noundef range(i32 1, 3) %0, ptr noundef %1, i16 noundef zeroext range(i16 0, 4096) %2, ptr noundef writeonly captures(address_is_null) %3, ptr noundef captures(address_is_null) %4) unnamed_addr #0 {
  %6 = alloca %struct.rlc_seqlist, align 8
  %7 = alloca %struct.rlc_seq, align 8
  %8 = alloca %struct.nstime_t, align 8
  call void @llvm.lifetime.start.p0(i64 40, ptr nonnull %6) #16
  call void @llvm.lifetime.start.p0(i64 32, ptr nonnull %7) #16
  call void @llvm.lifetime.start.p0(i64 16, ptr nonnull %8) #16
  %9 = tail call ptr @wmem_file_scope()
  %10 = load i32, ptr @proto_fp, align 4
  %11 = tail call ptr @p_get_proto_data(ptr noundef %9, ptr noundef %1, i32 noundef %10, i32 noundef 0)
  %12 = tail call ptr @wmem_file_scope()
  %13 = load i32, ptr @proto_umts_rlc, align 4
  %14 = tail call ptr @p_get_proto_data(ptr noundef %12, ptr noundef %1, i32 noundef %13, i32 noundef 0)
  %15 = icmp ne ptr %11, null
  %16 = icmp ne ptr %14, null
  %or.cond.i = select i1 %15, i1 %16, i1 false
  br i1 %or.cond.i, label %17, label %rlc_channel_assign.exit.thread

17:                                               ; preds = %5
  %18 = getelementptr inbounds nuw i8, ptr %11, i64 692
  %19 = load i32, ptr %18, align 4
  %20 = sext i32 %19 to i64
  %21 = getelementptr [64 x i32], ptr %14, i64 0, i64 %20
  %22 = load i32, ptr %21, align 4
  %.not.i = icmp eq i32 %22, 0
  br i1 %.not.i, label %28, label %23

23:                                               ; preds = %17
  store i32 %22, ptr %6, align 8
  %24 = getelementptr inbounds nuw i8, ptr %6, i64 8
  store i8 0, ptr %24, align 8
  %25 = getelementptr inbounds nuw i8, ptr %6, i64 10
  store i16 0, ptr %25, align 2
  %26 = getelementptr inbounds nuw i8, ptr %6, i64 6
  store i16 0, ptr %26, align 2
  %27 = getelementptr inbounds nuw i8, ptr %6, i64 4
  store i16 0, ptr %27, align 4
  br label %42

28:                                               ; preds = %17
  %.not38.i = icmp eq ptr %4, null
  br i1 %.not38.i, label %rlc_channel_assign.exit.thread, label %29

29:                                               ; preds = %28
  store i32 1, ptr %6, align 8
  %30 = getelementptr inbounds nuw i8, ptr %4, i64 8
  %31 = load i16, ptr %30, align 4
  %32 = getelementptr inbounds nuw i8, ptr %6, i64 4
  store i16 %31, ptr %32, align 4
  %33 = getelementptr inbounds nuw i8, ptr %4, i64 10
  %34 = load i16, ptr %33, align 2
  %35 = getelementptr inbounds nuw i8, ptr %6, i64 6
  store i16 %34, ptr %35, align 2
  %36 = getelementptr inbounds nuw i8, ptr %4, i64 12
  %37 = load i8, ptr %36, align 4
  %38 = getelementptr inbounds nuw i8, ptr %6, i64 8
  store i8 %37, ptr %38, align 8
  %39 = getelementptr inbounds nuw i8, ptr %1, i64 378
  %40 = load i16, ptr %39, align 2
  %41 = getelementptr inbounds nuw i8, ptr %6, i64 10
  store i16 %40, ptr %41, align 2
  br label %42

42:                                               ; preds = %29, %23
  %43 = getelementptr inbounds nuw i8, ptr %14, i64 320
  %44 = getelementptr [64 x i8], ptr %43, i64 0, i64 %20
  %45 = load i8, ptr %44, align 1
  %46 = getelementptr inbounds nuw i8, ptr %6, i64 12
  store i8 %45, ptr %46, align 4
  %47 = getelementptr inbounds nuw i8, ptr %1, i64 384
  %48 = load i32, ptr %47, align 8
  %49 = trunc i32 %48 to i8
  %50 = getelementptr inbounds nuw i8, ptr %6, i64 13
  store i8 %49, ptr %50, align 1
  %51 = getelementptr inbounds nuw i8, ptr %6, i64 20
  store i32 %0, ptr %51, align 4
  %52 = getelementptr inbounds nuw i8, ptr %14, i64 384
  %53 = getelementptr [64 x i32], ptr %52, i64 0, i64 %20
  %54 = load i32, ptr %53, align 4
  %55 = getelementptr inbounds nuw i8, ptr %6, i64 16
  store i32 %54, ptr %55, align 8
  %56 = load ptr, ptr @sequence_table, align 8
  %57 = call ptr @g_hash_table_lookup(ptr noundef %56, ptr noundef nonnull %6)
  %.not = icmp eq ptr %57, null
  br i1 %.not, label %58, label %64

58:                                               ; preds = %42
  %59 = call ptr @wmem_file_scope()
  %60 = call noalias dereferenceable_or_null(40) ptr @wmem_alloc0(ptr noundef %59, i64 noundef 40) #17
  %61 = call fastcc i32 @rlc_channel_assign(ptr noundef %60, i32 noundef %0, ptr noundef %1, ptr noundef %4)
  %62 = load ptr, ptr @sequence_table, align 8
  %63 = call i32 @g_hash_table_insert(ptr noundef %62, ptr noundef %60, ptr noundef %60)
  br label %64

64:                                               ; preds = %58, %42
  %.057 = phi ptr [ %57, %42 ], [ %60, %58 ]
  %65 = getelementptr inbounds nuw i8, ptr %7, i64 24
  store i16 %2, ptr %65, align 8
  %66 = getelementptr inbounds nuw i8, ptr %1, i64 20
  %67 = load i32, ptr %66, align 4
  store i32 %67, ptr %7, align 8
  %68 = getelementptr inbounds nuw i8, ptr %.057, i64 24
  %69 = load ptr, ptr %68, align 8
  %70 = call ptr @g_list_first(ptr noundef %69)
  %.not66 = icmp eq ptr %70, null
  br i1 %.not66, label %._crit_edge80, label %71

._crit_edge80:                                    ; preds = %64
  %.pre = load ptr, ptr %68, align 8
  br label %88

71:                                               ; preds = %64
  %.val = load i32, ptr %51, align 4
  %72 = icmp eq i32 %.val, 1
  %73 = load ptr, ptr %70, align 8
  %74 = getelementptr inbounds nuw i8, ptr %73, i64 24
  %75 = load i16, ptr %74, align 8
  %76 = zext i16 %75 to i32
  %77 = zext nneg i16 %2 to i32
  %78 = select i1 %72, i32 128, i32 4096
  %79 = sub nsw i32 %78, %77
  %80 = add nsw i32 %79, %76
  %81 = srem i32 %80, %78
  %82 = add nuw nsw i32 %78, %77
  %83 = sub nsw i32 %82, %76
  %84 = srem i32 %83, %78
  %. = call i32 @llvm.smin.i32(i32 %81, i32 %84)
  %85 = lshr exact i32 %78, 2
  %.not67 = icmp slt i32 %., %85
  %.pre81 = load ptr, ptr %68, align 8
  br i1 %.not67, label %88, label %86

86:                                               ; preds = %71
  %87 = call ptr @g_list_remove_link(ptr noundef %.pre81, ptr noundef nonnull %70)
  store ptr %87, ptr %68, align 8
  br label %88

88:                                               ; preds = %._crit_edge80, %71, %86
  %89 = phi ptr [ %.pre, %._crit_edge80 ], [ %.pre81, %71 ], [ %87, %86 ]
  %90 = call ptr @g_list_find_custom(ptr noundef %89, ptr noundef nonnull %7, ptr noundef nonnull @rlc_cmp_seq)
  %.not6872 = icmp eq ptr %90, null
  br i1 %.not6872, label %._crit_edge.thread, label %.lr.ph

.lr.ph:                                           ; preds = %88
  %91 = getelementptr inbounds nuw i8, ptr %1, i64 24
  %.not69 = icmp eq ptr %3, null
  br i1 %.not69, label %.lr.ph.split.us, label %.lr.ph.split

.lr.ph.split.us:                                  ; preds = %.lr.ph, %102
  %.075.us = phi i1 [ %.1.us, %102 ], [ true, %.lr.ph ]
  %.05474.us = phi i1 [ %.155.us, %102 ], [ false, %.lr.ph ]
  %.05873.us = phi ptr [ %105, %102 ], [ %90, %.lr.ph ]
  %92 = load ptr, ptr %.05873.us, align 8
  %93 = load i32, ptr %92, align 8
  %94 = load i32, ptr %7, align 8
  %95 = icmp ult i32 %93, %94
  br i1 %95, label %98, label %96

96:                                               ; preds = %.lr.ph.split.us
  %97 = icmp ne i32 %93, %94
  %spec.select.us = select i1 %97, i1 %.075.us, i1 false
  br label %102

98:                                               ; preds = %.lr.ph.split.us
  %99 = getelementptr inbounds nuw i8, ptr %92, i64 8
  call void @nstime_delta(ptr noundef nonnull %8, ptr noundef nonnull %91, ptr noundef nonnull %99)
  %100 = load i64, ptr %8, align 8
  %101 = icmp slt i64 %100, 5
  %spec.select78 = select i1 %101, i1 true, i1 %.05474.us
  br label %102

102:                                              ; preds = %98, %96
  %.155.us = phi i1 [ %.05474.us, %96 ], [ %spec.select78, %98 ]
  %.1.us = phi i1 [ %spec.select.us, %96 ], [ %.075.us, %98 ]
  %103 = getelementptr inbounds nuw i8, ptr %.05873.us, i64 8
  %104 = load ptr, ptr %103, align 8
  %105 = call ptr @g_list_find_custom(ptr noundef %104, ptr noundef nonnull %7, ptr noundef nonnull @rlc_cmp_seq)
  %.not68.us = icmp eq ptr %105, null
  br i1 %.not68.us, label %._crit_edge, label %.lr.ph.split.us, !llvm.loop !12

.lr.ph.split:                                     ; preds = %.lr.ph, %118
  %.075 = phi i1 [ %.1, %118 ], [ true, %.lr.ph ]
  %.05474 = phi i1 [ %.155, %118 ], [ false, %.lr.ph ]
  %.05873 = phi ptr [ %121, %118 ], [ %90, %.lr.ph ]
  %106 = load ptr, ptr %.05873, align 8
  %107 = load i32, ptr %106, align 8
  %108 = load i32, ptr %7, align 8
  %109 = icmp ult i32 %107, %108
  br i1 %109, label %110, label %116

110:                                              ; preds = %.lr.ph.split
  %111 = getelementptr inbounds nuw i8, ptr %106, i64 8
  call void @nstime_delta(ptr noundef nonnull %8, ptr noundef nonnull %91, ptr noundef nonnull %111)
  %112 = load i64, ptr %8, align 8
  %113 = icmp slt i64 %112, 5
  br i1 %113, label %114, label %118

114:                                              ; preds = %110
  %115 = load i32, ptr %106, align 8
  store i32 %115, ptr %3, align 4
  br label %118

116:                                              ; preds = %.lr.ph.split
  %117 = icmp ne i32 %107, %108
  %spec.select = select i1 %117, i1 %.075, i1 false
  br label %118

118:                                              ; preds = %116, %114, %110
  %.155 = phi i1 [ %.05474, %110 ], [ true, %114 ], [ %.05474, %116 ]
  %.1 = phi i1 [ %.075, %110 ], [ %.075, %114 ], [ %spec.select, %116 ]
  %119 = getelementptr inbounds nuw i8, ptr %.05873, i64 8
  %120 = load ptr, ptr %119, align 8
  %121 = call ptr @g_list_find_custom(ptr noundef %120, ptr noundef nonnull %7, ptr noundef nonnull @rlc_cmp_seq)
  %.not68 = icmp eq ptr %121, null
  br i1 %.not68, label %._crit_edge, label %.lr.ph.split, !llvm.loop !12

._crit_edge:                                      ; preds = %118, %102
  %.054.lcssa = phi i1 [ %.155.us, %102 ], [ %.155, %118 ]
  %.0.lcssa = phi i1 [ %.1.us, %102 ], [ %.1, %118 ]
  br i1 %.0.lcssa, label %._crit_edge.thread, label %rlc_channel_assign.exit.thread

._crit_edge.thread:                               ; preds = %88, %._crit_edge
  %.054.lcssa84 = phi i1 [ %.054.lcssa, %._crit_edge ], [ false, %88 ]
  %122 = call ptr @wmem_file_scope()
  %123 = call noalias dereferenceable_or_null(32) ptr @wmem_alloc0(ptr noundef %122, i64 noundef 32) #17
  call void @llvm.memcpy.p0.p0.i64(ptr noundef align 8 dereferenceable(32) %123, ptr noundef nonnull align 8 dereferenceable(32) %7, i64 32, i1 false)
  %124 = getelementptr inbounds nuw i8, ptr %123, i64 8
  %125 = getelementptr inbounds nuw i8, ptr %1, i64 24
  call void @llvm.memcpy.p0.p0.i64(ptr noundef nonnull align 8 dereferenceable(16) %124, ptr noundef nonnull align 8 dereferenceable(16) %125, i64 16, i1 false)
  %126 = load ptr, ptr %68, align 8
  %127 = call ptr @g_list_append(ptr noundef %126, ptr noundef %123)
  store ptr %127, ptr %68, align 8
  br label %rlc_channel_assign.exit.thread

rlc_channel_assign.exit.thread:                   ; preds = %._crit_edge, %._crit_edge.thread, %28, %5
  %.056 = phi i1 [ false, %5 ], [ false, %28 ], [ %.054.lcssa84, %._crit_edge.thread ], [ %.054.lcssa, %._crit_edge ]
  call void @llvm.lifetime.end.p0(i64 16, ptr nonnull %8) #16
  call void @llvm.lifetime.end.p0(i64 32, ptr nonnull %7) #16
  call void @llvm.lifetime.end.p0(i64 40, ptr nonnull %6) #16
  ret i1 %.056
}